target datalayout = "e-m:e-p270:32:32-p271:32:32-p272:64:64-i64:64-i128:128-f80:128-n8:16:32:64-S128"
target triple = "x86_64-pc-linux-gnu"

%struct.Agobj_s = type { %struct.Agtag_s, ptr }
%struct.Agtag_s = type { i32, i64 }
%struct.dtlink_s_ = type { ptr, %union.anon.1 }
%union.anon.1 = type { ptr }
%struct.Agrec_s = type { ptr, ptr }
%struct.Agnode_s = type { %struct.Agobj_s, ptr, %struct.Agsubnode_s }
%struct.Agsubnode_s = type { %struct.dtlink_s_, %struct.dtlink_s_, ptr, ptr, ptr, ptr, ptr }
%struct.nodeinfo_t = type { %struct.Agrec_s, i8, ptr }

@stderr = external global ptr, align 8
@.str.9 = private unnamed_addr constant [9 x i8] c"nodeinfo\00", align 1
@.str.20 = private unnamed_addr constant [67 x i8] c"Error: node \22%s\22 belongs to two non-nested clusters \22%s\22 and \22%s\22\0A\00", align 1

; Function Attrs: nounwind uwtable
define internal void @deriveClusters(ptr noundef %0, ptr noundef %1) #0 {
  %3 = alloca ptr, align 8
  %4 = alloca ptr, align 8
  %5 = alloca ptr, align 8
  %6 = alloca i32, align 4
  %7 = alloca ptr, align 8
  %8 = alloca ptr, align 8
  store ptr %0, ptr %3, align 8, !tbaa !11
  store ptr %1, ptr %4, align 8, !tbaa !11
  call void @llvm.lifetime.start.p0(i64 8, ptr %5) #14
  %9 = load ptr, ptr %4, align 8, !tbaa !11
  %10 = call ptr @agfstsubg(ptr noundef %9)
  store ptr %10, ptr %5, align 8, !tbaa !11
  br label %11

11:                                               ; preds = %75, %2
  %12 = load ptr, ptr %5, align 8, !tbaa !11
  %13 = icmp ne ptr %12, null
  br i1 %13, label %15, label %14

14:                                               ; preds = %11
  store i32 2, ptr %6, align 4
  call void @llvm.lifetime.end.p0(i64 8, ptr %5) #14
  br label %78

15:                                               ; preds = %11
  %16 = load ptr, ptr %5, align 8, !tbaa !11
  %17 = call zeroext i1 @is_a_cluster(ptr noundef %16)
  br i1 %17, label %18, label %71

18:                                               ; preds = %15
  call void @llvm.lifetime.start.p0(i64 8, ptr %7) #14
  %19 = load ptr, ptr %3, align 8, !tbaa !11
  %20 = load ptr, ptr %5, align 8, !tbaa !11
  %21 = call ptr @agnameof(ptr noundef %20)
  %22 = call ptr @agnode(ptr noundef %19, ptr noundef %21, i32 noundef 1)
  store ptr %22, ptr %7, align 8, !tbaa !25
  %23 = load ptr, ptr %7, align 8, !tbaa !25
  %24 = call ptr @agbindrec(ptr noundef %23, ptr noundef @.str.9, i32 noundef 32, i32 noundef 1)
  %25 = load ptr, ptr %5, align 8, !tbaa !11
  %26 = load ptr, ptr %7, align 8, !tbaa !25
  %27 = getelementptr inbounds nuw %struct.Agnode_s, ptr %26, i32 0, i32 0
  %28 = getelementptr inbounds nuw %struct.Agobj_s, ptr %27, i32 0, i32 1
  %29 = load ptr, ptr %28, align 8, !tbaa !44
  %30 = getelementptr inbounds nuw %struct.nodeinfo_t, ptr %29, i32 0, i32 2
  store ptr %25, ptr %30, align 8, !tbaa !60
  call void @llvm.lifetime.start.p0(i64 8, ptr %8) #14
  %31 = load ptr, ptr %5, align 8, !tbaa !11
  %32 = call ptr @agfstnode(ptr noundef %31)
  store ptr %32, ptr %8, align 8, !tbaa !25
  br label %33

33:                                               ; preds = %66, %18
  %34 = load ptr, ptr %8, align 8, !tbaa !25
  %35 = icmp ne ptr %34, null
  br i1 %35, label %37, label %36

36:                                               ; preds = %33
  store i32 5, ptr %6, align 4
  call void @llvm.lifetime.end.p0(i64 8, ptr %8) #14
  br label %70

37:                                               ; preds = %33
  %38 = load ptr, ptr %8, align 8, !tbaa !25
  %39 = getelementptr inbounds nuw %struct.Agnode_s, ptr %38, i32 0, i32 0
  %40 = getelementptr inbounds nuw %struct.Agobj_s, ptr %39, i32 0, i32 1
  %41 = load ptr, ptr %40, align 8, !tbaa !44
  %42 = getelementptr inbounds nuw %struct.nodeinfo_t, ptr %41, i32 0, i32 2
  %43 = load ptr, ptr %42, align 8, !tbaa !60
  %44 = icmp ne ptr %43, null
  br i1 %44, label %45, label %59

45:                                               ; preds = %37
  %46 = load ptr, ptr @stderr, align 8, !tbaa !20
  %47 = load ptr, ptr %8, align 8, !tbaa !25
  %48 = call ptr @agnameof(ptr noundef %47)
  %49 = load ptr, ptr %5, align 8, !tbaa !11
  %50 = call ptr @agnameof(ptr noundef %49)
  %51 = load ptr, ptr %8, align 8, !tbaa !25
  %52 = getelementptr inbounds nuw %struct.Agnode_s, ptr %51, i32 0, i32 0
  %53 = getelementptr inbounds nuw %struct.Agobj_s, ptr %52, i32 0, i32 1
  %54 = load ptr, ptr %53, align 8, !tbaa !44
  %55 = getelementptr inbounds nuw %struct.nodeinfo_t, ptr %54, i32 0, i32 2
  %56 = load ptr, ptr %55, align 8, !tbaa !60
  %57 = call ptr @agnameof(ptr noundef %56)
  %58 = call i32 (ptr, ptr, ...) @fprintf(ptr noundef %46, ptr noundef @.str.20, ptr noundef %48, ptr noundef %50, ptr noundef %57) #14
  br label %59

59:                                               ; preds = %45, %37
  %60 = load ptr, ptr %7, align 8, !tbaa !25
  %61 = load ptr, ptr %8, align 8, !tbaa !25
  %62 = getelementptr inbounds nuw %struct.Agnode_s, ptr %61, i32 0, i32 0
  %63 = getelementptr inbounds nuw %struct.Agobj_s, ptr %62, i32 0, i32 1
  %64 = load ptr, ptr %63, align 8, !tbaa !44
  %65 = getelementptr inbounds nuw %struct.nodeinfo_t, ptr %64, i32 0, i32 2
  store ptr %60, ptr %65, align 8, !tbaa !60
  br label %66

66:                                               ; preds = %59
  %67 = load ptr, ptr %5, align 8, !tbaa !11
  %68 = load ptr, ptr %8, align 8, !tbaa !25
  %69 = call ptr @agnxtnode(ptr noundef %67, ptr noundef %68)
  store ptr %69, ptr %8, align 8, !tbaa !25
  br label %33, !llvm.loop !79

70:                                               ; preds = %36
  call void @llvm.lifetime.end.p0(i64 8, ptr %7) #14
  br label %74

71:                                               ; preds = %15
  %72 = load ptr, ptr %3, align 8, !tbaa !11
  %73 = load ptr, ptr %5, align 8, !tbaa !11
  call void @deriveClusters(ptr noundef %72, ptr noundef %73)
  br label %74

74:                                               ; preds = %71, %70
  br label %75

75:                                               ; preds = %74
  %76 = load ptr, ptr %5, align 8, !tbaa !11
  %77 = call ptr @agnxtsubg(ptr noundef %76)
  store ptr %77, ptr %5, align 8, !tbaa !11
  br label %11, !llvm.loop !80

78:                                               ; preds = %14
  ret void
}