; Function Attrs: nounwind uwtable
define internal fastcc void @deriveClusters(ptr noundef %0, ptr noundef nonnull %1) unnamed_addr #11 {
  %3 = tail call ptr @agfstsubg(ptr noundef nonnull %1) #23
  %.not26 = icmp eq ptr %3, null
  br i1 %.not26, label %._crit_edge, label %.lr.ph29

._crit_edge:                                      ; preds = %.loopexit, %2
  ret void

.lr.ph29:                                         ; preds = %2, %.loopexit
  %.02127 = phi ptr [ %31, %.loopexit ], [ %3, %2 ]
  %4 = tail call zeroext i1 @is_a_cluster(ptr noundef nonnull %.02127) #23
  br i1 %4, label %5, label %30

5:                                                ; preds = %.lr.ph29
  %6 = tail call ptr @agnameof(ptr noundef nonnull %.02127) #23
  %7 = tail call ptr @agnode(ptr noundef %0, ptr noundef %6, i32 noundef 1) #23
  %8 = tail call ptr @agbindrec(ptr noundef %7, ptr noundef nonnull @.str.9, i32 noundef 32, i32 noundef 1) #23
  %9 = getelementptr inbounds nuw i8, ptr %7, i64 16
  %10 = load ptr, ptr %9, align 8, !tbaa !20
  %11 = getelementptr inbounds nuw i8, ptr %10, i64 24
  store ptr %.02127, ptr %11, align 8, !tbaa !30
  %12 = tail call ptr @agfstnode(ptr noundef nonnull %.02127) #23
  %.not2224 = icmp eq ptr %12, null
  br i1 %.not2224, label %.loopexit, label %.lr.ph

.lr.ph:                                           ; preds = %5, %26
  %.025 = phi ptr [ %29, %26 ], [ %12, %5 ]
  %13 = getelementptr inbounds nuw i8, ptr %.025, i64 16
  %14 = load ptr, ptr %13, align 8, !tbaa !20
  %15 = getelementptr inbounds nuw i8, ptr %14, i64 24
  %16 = load ptr, ptr %15, align 8, !tbaa !30
  %.not23 = icmp eq ptr %16, null
  br i1 %.not23, label %26, label %17

17:                                               ; preds = %.lr.ph
  %18 = load ptr, ptr @stderr, align 8, !tbaa !14
  %19 = tail call ptr @agnameof(ptr noundef nonnull %.025) #23
  %20 = tail call ptr @agnameof(ptr noundef nonnull %.02127) #23
  %21 = load ptr, ptr %13, align 8, !tbaa !20
  %22 = getelementptr inbounds nuw i8, ptr %21, i64 24
  %23 = load ptr, ptr %22, align 8, !tbaa !30
  %24 = tail call ptr @agnameof(ptr noundef %23) #23
  %25 = tail call i32 (ptr, ptr, ...) @fprintf(ptr noundef %18, ptr noundef nonnull @.str.20, ptr noundef %19, ptr noundef %20, ptr noundef %24) #25
  %.pre = load ptr, ptr %13, align 8, !tbaa !20
  br label %26

26:                                               ; preds = %17, %.lr.ph
  %27 = phi ptr [ %.pre, %17 ], [ %14, %.lr.ph ]
  %28 = getelementptr inbounds nuw i8, ptr %27, i64 24
  store ptr %7, ptr %28, align 8, !tbaa !30
  %29 = tail call ptr @agnxtnode(ptr noundef nonnull %.02127, ptr noundef nonnull %.025) #23
  %.not22 = icmp eq ptr %29, null
  br i1 %.not22, label %.loopexit, label %.lr.ph, !llvm.loop !75

30:                                               ; preds = %.lr.ph29
  tail call fastcc void @deriveClusters(ptr noundef %0, ptr noundef %.02127)
  br label %.loopexit

.loopexit:                                        ; preds = %26, %5, %30
  %31 = tail call ptr @agnxtsubg(ptr noundef nonnull %.02127) #23
  %.not = icmp eq ptr %31, null
  br i1 %.not, label %._crit_edge, label %.lr.ph29, !llvm.loop !76
}